target datalayout = "e-m:e-p270:32:32-p271:32:32-p272:64:64-i64:64-i128:128-f80:128-n8:16:32:64-S128"
target triple = "x86_64-pc-linux-gnu"

%"class.pxrInternal_v0_24__pxrReserved__::TraceStaticKeyData" = type { ptr, ptr, ptr }
%class.anon = type { ptr }
%"class.pxrInternal_v0_24__pxrReserved__::TraceKey" = type { ptr }
%class.anon.78 = type { ptr }
%class.anon.79 = type { i8 }
%"struct.pxrInternal_v0_24__pxrReserved__::ArchIntervalTimer" = type { i8, i32, i32 }
%"class.pxrInternal_v0_24__pxrReserved__::TraceScopeAuto" = type <{ ptr, %"struct.pxrInternal_v0_24__pxrReserved__::ArchIntervalTimer", [4 x i8] }>

@_ZN32pxrInternal_v0_24__pxrReserved__14TraceCollector10_isEnabledE = global { i32 } zeroinitializer, align 4
@"_ZZZN32pxrInternal_v0_24__pxrReserved__14TraceCollector21_MeasureScopeOverheadEvENK3$_0clEvE16TraceKeyData_227" = internal constant %"class.pxrInternal_v0_24__pxrReserved__::TraceStaticKeyData" { ptr @.str.28, ptr @.str.29, ptr null }, align 8

; Function Attrs: mustprogress nounwind uwtable
define linkonce_odr noundef i64 @_ZN32pxrInternal_v0_24__pxrReserved__19ArchGetStopTickTimeEv() #5 comdat {
  %1 = alloca i32, align 4
  %2 = alloca i64, align 8
  store i32 5, ptr %1, align 4
  %3 = load i32, ptr %1, align 4
  switch i32 %3, label %8 [
    i32 1, label %4
    i32 2, label %4
    i32 3, label %5
    i32 4, label %6
    i32 5, label %7
  ]

4:                                                ; preds = %0, %0
  fence syncscope("singlethread") acquire
  br label %8

5:                                                ; preds = %0
  fence syncscope("singlethread") release
  br label %8

6:                                                ; preds = %0
  fence syncscope("singlethread") acq_rel
  br label %8

7:                                                ; preds = %0
  fence syncscope("singlethread") seq_cst
  br label %8

8:                                                ; preds = %7, %6, %5, %4, %0
  %9 = call i64 asm sideeffect "rdtscp\0A\09shl $$32, %rdx\0A\09or %rdx, $0\0A\09lfence", "={ax},~{rcx},~{rdx},~{cc},~{dirflag},~{fpsr},~{flags}"() #3, !srcloc !21
  store i64 %9, ptr %2, align 8
  %10 = load i64, ptr %2, align 8
  ret i64 %10
}

; Function Attrs: mustprogress nounwind uwtable
define linkonce_odr noundef i32 @_ZStanSt12memory_orderSt23__memory_order_modifier(i32 noundef %0, i32 noundef %1) #5 comdat {
  %3 = alloca i32, align 4
  %4 = alloca i32, align 4
  store i32 %0, ptr %3, align 4
  store i32 %1, ptr %4, align 4
  %5 = load i32, ptr %3, align 4
  %6 = load i32, ptr %4, align 4
  %7 = and i32 %5, %6
  ret i32 %7
}

; Function Attrs: mustprogress nounwind uwtable
define linkonce_odr noundef i64 @_ZNK32pxrInternal_v0_24__pxrReserved__17ArchIntervalTimer13GetStartTicksEv(ptr noundef nonnull align 4 dereferenceable(12) %0) #5 comdat align 2 {
  %2 = alloca ptr, align 8
  store ptr %0, ptr %2, align 8
  %3 = load ptr, ptr %2, align 8
  %4 = getelementptr inbounds nuw %"struct.pxrInternal_v0_24__pxrReserved__::ArchIntervalTimer", ptr %3, i32 0, i32 2
  %5 = load i32, ptr %4, align 4
  %6 = zext i32 %5 to i64
  %7 = shl i64 %6, 32
  %8 = getelementptr inbounds nuw %"struct.pxrInternal_v0_24__pxrReserved__::ArchIntervalTimer", ptr %3, i32 0, i32 1
  %9 = load i32, ptr %8, align 4
  %10 = zext i32 %9 to i64
  %11 = add i64 %7, %10
  ret i64 %11
}

; Function Attrs: mustprogress nounwind uwtable
define linkonce_odr void @_ZN32pxrInternal_v0_24__pxrReserved__8TraceKeyC2ERKNS_18TraceStaticKeyDataE(ptr noundef nonnull align 8 dereferenceable(8) %0, ptr noundef nonnull align 8 dereferenceable(24) %1) unnamed_addr #5 comdat align 2 {
  %3 = alloca ptr, align 8
  %4 = alloca ptr, align 8
  store ptr %0, ptr %3, align 8
  store ptr %1, ptr %4, align 8
  %5 = load ptr, ptr %3, align 8
  %6 = getelementptr inbounds nuw %"class.pxrInternal_v0_24__pxrReserved__::TraceKey", ptr %5, i32 0, i32 0
  %7 = load ptr, ptr %4, align 8
  store ptr %7, ptr %6, align 8
  ret void
}

; Function Attrs: mustprogress uwtable
define linkonce_odr noundef i64 @_ZN32pxrInternal_v0_24__pxrReserved__17ArchIntervalTimer15GetCurrentTicksEv(ptr noundef nonnull align 4 dereferenceable(12) %0) #4 comdat align 2 {
  %2 = alloca ptr, align 8
  store ptr %0, ptr %2, align 8
  %3 = call noundef i64 @_ZN32pxrInternal_v0_24__pxrReserved__19ArchGetStopTickTimeEv()
  ret i64 %3
}

; Function Attrs: mustprogress nounwind uwtable
define linkonce_odr noundef zeroext i1 @_ZNK32pxrInternal_v0_24__pxrReserved__17ArchIntervalTimer9IsStartedEv(ptr noundef nonnull align 4 dereferenceable(12) %0) #5 comdat align 2 {
  %2 = alloca ptr, align 8
  store ptr %0, ptr %2, align 8
  %3 = load ptr, ptr %2, align 8
  %4 = getelementptr inbounds nuw %"struct.pxrInternal_v0_24__pxrReserved__::ArchIntervalTimer", ptr %3, i32 0, i32 0
  %5 = load i8, ptr %4, align 4
  %6 = trunc i8 %5 to i1
  ret i1 %6
}

; Function Attrs: noreturn nounwind uwtable
define linkonce_odr hidden void @__clang_call_terminate(ptr noundef %0) #7 comdat {
  %2 = call ptr @__cxa_begin_catch(ptr %0) #3
  call void @_ZSt9terminatev() #15
  unreachable
}

; Function Attrs: mustprogress nounwind uwtable
define linkonce_odr noundef zeroext i1 @_ZN32pxrInternal_v0_24__pxrReserved__14TraceCollector9IsEnabledEv() #5 comdat align 2 {
  %1 = alloca ptr, align 8
  %2 = alloca i32, align 4
  %3 = alloca i32, align 4
  %4 = alloca i32, align 4
  store ptr @_ZN32pxrInternal_v0_24__pxrReserved__14TraceCollector10_isEnabledE, ptr %1, align 8
  store i32 2, ptr %2, align 4
  %5 = load ptr, ptr %1, align 8
  %6 = load i32, ptr %2, align 4
  %7 = call noundef i32 @_ZStanSt12memory_orderSt23__memory_order_modifier(i32 noundef %6, i32 noundef 65535)
  store i32 %7, ptr %3, align 4
  %8 = load i32, ptr %2, align 4
  switch i32 %8, label %9 [
    i32 1, label %11
    i32 2, label %11
    i32 5, label %13
  ]

9:                                                ; preds = %0
  %10 = load atomic i32, ptr %5 monotonic, align 4
  store i32 %10, ptr %4, align 4
  br label %15

11:                                               ; preds = %0, %0
  %12 = load atomic i32, ptr %5 acquire, align 4
  store i32 %12, ptr %4, align 4
  br label %15

13:                                               ; preds = %0
  %14 = load atomic i32, ptr %5 seq_cst, align 4
  store i32 %14, ptr %4, align 4
  br label %15

15:                                               ; preds = %13, %11, %9
  %16 = load i32, ptr %4, align 4
  %17 = icmp eq i32 %16, 1
  ret i1 %17
}

; Function Attrs: mustprogress nounwind uwtable
define linkonce_odr void @_ZN32pxrInternal_v0_24__pxrReserved__14TraceScopeAutoD2Ev(ptr noundef nonnull align 8 dereferenceable(20) %0) unnamed_addr #5 comdat align 2 personality ptr @__gxx_personality_v0 {
  %2 = alloca ptr, align 8
  %3 = alloca i64, align 8
  %4 = alloca %"class.pxrInternal_v0_24__pxrReserved__::TraceKey", align 8
  store ptr %0, ptr %2, align 8
  %5 = load ptr, ptr %2, align 8
  %6 = getelementptr inbounds nuw %"class.pxrInternal_v0_24__pxrReserved__::TraceScopeAuto", ptr %5, i32 0, i32 1
  %7 = invoke noundef zeroext i1 @_ZNK32pxrInternal_v0_24__pxrReserved__17ArchIntervalTimer9IsStartedEv(ptr noundef nonnull align 4 dereferenceable(12) %6)
          to label %8 unwind label %21

8:                                                ; preds = %1
  br i1 %7, label %9, label %20

9:                                                ; preds = %8
  %10 = getelementptr inbounds nuw %"class.pxrInternal_v0_24__pxrReserved__::TraceScopeAuto", ptr %5, i32 0, i32 1
  %11 = invoke noundef i64 @_ZN32pxrInternal_v0_24__pxrReserved__17ArchIntervalTimer15GetCurrentTicksEv(ptr noundef nonnull align 4 dereferenceable(12) %10)
          to label %12 unwind label %21

12:                                               ; preds = %9
  store i64 %11, ptr %3, align 8
  %13 = getelementptr inbounds nuw %"class.pxrInternal_v0_24__pxrReserved__::TraceScopeAuto", ptr %5, i32 0, i32 0
  %14 = load ptr, ptr %13, align 8
  invoke void @_ZN32pxrInternal_v0_24__pxrReserved__8TraceKeyC2ERKNS_18TraceStaticKeyDataE(ptr noundef nonnull align 8 dereferenceable(8) %4, ptr noundef nonnull align 8 dereferenceable(24) %14)
          to label %15 unwind label %21

15:                                               ; preds = %12
  %16 = getelementptr inbounds nuw %"class.pxrInternal_v0_24__pxrReserved__::TraceScopeAuto", ptr %5, i32 0, i32 1
  %17 = invoke noundef i64 @_ZNK32pxrInternal_v0_24__pxrReserved__17ArchIntervalTimer13GetStartTicksEv(ptr noundef nonnull align 4 dereferenceable(12) %16)
          to label %18 unwind label %21

18:                                               ; preds = %15
  %19 = load i64, ptr %3, align 8
  call void @_ZN32pxrInternal_v0_24__pxrReserved__14TraceCollector5ScopeERKNS_8TraceKeyEmm(ptr noundef nonnull align 8 dereferenceable(8) %4, i64 noundef %17, i64 noundef %19) #3
  br label %20

20:                                               ; preds = %18, %8
  ret void

21:                                               ; preds = %15, %12, %9, %1
  %22 = landingpad { ptr, i32 }
          catch ptr null
  %23 = extractvalue { ptr, i32 } %22, 0
  call void @__clang_call_terminate(ptr %23) #15
  unreachable
}

; Function Attrs: mustprogress nounwind uwtable
define linkonce_odr void @_ZN32pxrInternal_v0_24__pxrReserved__14TraceScopeAutoC2ERKNS_18TraceStaticKeyDataE(ptr noundef nonnull align 8 dereferenceable(20) %0, ptr noundef nonnull align 8 dereferenceable(24) %1) unnamed_addr #5 comdat align 2 personality ptr @__gxx_personality_v0 {
  %3 = alloca ptr, align 8
  %4 = alloca ptr, align 8
  store ptr %0, ptr %3, align 8
  store ptr %1, ptr %4, align 8
  %5 = load ptr, ptr %3, align 8
  %6 = getelementptr inbounds nuw %"class.pxrInternal_v0_24__pxrReserved__::TraceScopeAuto", ptr %5, i32 0, i32 0
  %7 = load ptr, ptr %4, align 8
  store ptr %7, ptr %6, align 8
  %8 = getelementptr inbounds nuw %"class.pxrInternal_v0_24__pxrReserved__::TraceScopeAuto", ptr %5, i32 0, i32 1
  %9 = call noundef zeroext i1 @_ZN32pxrInternal_v0_24__pxrReserved__14TraceCollector9IsEnabledEv()
  invoke void @_ZN32pxrInternal_v0_24__pxrReserved__17ArchIntervalTimerC2Eb(ptr noundef nonnull align 4 dereferenceable(12) %8, i1 noundef zeroext %9)
          to label %10 unwind label %11

10:                                               ; preds = %2
  ret void

11:                                               ; preds = %2
  %12 = landingpad { ptr, i32 }
          catch ptr null
  %13 = extractvalue { ptr, i32 } %12, 0
  call void @__clang_call_terminate(ptr %13) #15
  unreachable
}

; Function Attrs: mustprogress nounwind uwtable
define linkonce_odr void @_ZN32pxrInternal_v0_24__pxrReserved__17ArchIntervalTimer5StartEv(ptr noundef nonnull align 4 dereferenceable(12) %0) #5 comdat align 2 {
  %2 = alloca i32, align 4
  %3 = alloca ptr, align 8
  store ptr %0, ptr %3, align 8
  %4 = load ptr, ptr %3, align 8
  %5 = getelementptr inbounds nuw %"struct.pxrInternal_v0_24__pxrReserved__::ArchIntervalTimer", ptr %4, i32 0, i32 0
  store i8 1, ptr %5, align 4
  store i32 5, ptr %2, align 4
  %6 = load i32, ptr %2, align 4
  switch i32 %6, label %11 [
    i32 1, label %7
    i32 2, label %7
    i32 3, label %8
    i32 4, label %9
    i32 5, label %10
  ]

7:                                                ; preds = %1, %1
  fence syncscope("singlethread") acquire
  br label %11

8:                                                ; preds = %1
  fence syncscope("singlethread") release
  br label %11

9:                                                ; preds = %1
  fence syncscope("singlethread") acq_rel
  br label %11

10:                                               ; preds = %1
  fence syncscope("singlethread") seq_cst
  br label %11

11:                                               ; preds = %10, %9, %8, %7, %1
  %12 = getelementptr inbounds nuw %"struct.pxrInternal_v0_24__pxrReserved__::ArchIntervalTimer", ptr %4, i32 0, i32 1
  %13 = getelementptr inbounds nuw %"struct.pxrInternal_v0_24__pxrReserved__::ArchIntervalTimer", ptr %4, i32 0, i32 2
  %14 = call { i32, i32 } asm sideeffect "lfence\0A\09rdtsc\0A\09lfence", "={ax},={dx},~{dirflag},~{fpsr},~{flags}"() #3, !srcloc !20
  %15 = extractvalue { i32, i32 } %14, 0
  %16 = extractvalue { i32, i32 } %14, 1
  store i32 %15, ptr %12, align 4
  store i32 %16, ptr %13, align 4
  ret void
}

; Function Attrs: mustprogress nounwind uwtable
define linkonce_odr noundef i64 @_ZN32pxrInternal_v0_24__pxrReserved__17ArchIntervalTimer15GetElapsedTicksEv(ptr noundef nonnull align 4 dereferenceable(12) %0) #5 comdat align 2 {
  %2 = alloca i32, align 4
  %3 = alloca i64, align 8
  %4 = alloca ptr, align 8
  %5 = alloca i32, align 4
  %6 = alloca i32, align 4
  store ptr %0, ptr %4, align 8
  %7 = load ptr, ptr %4, align 8
  %8 = getelementptr inbounds nuw %"struct.pxrInternal_v0_24__pxrReserved__::ArchIntervalTimer", ptr %7, i32 0, i32 0
  %9 = load i8, ptr %8, align 4
  %10 = trunc i8 %9 to i1
  br i1 %10, label %12, label %11

11:                                               ; preds = %1
  store i64 0, ptr %3, align 8
  br label %37

12:                                               ; preds = %1
  store i32 5, ptr %2, align 4
  %13 = load i32, ptr %2, align 4
  switch i32 %13, label %18 [
    i32 1, label %14
    i32 2, label %14
    i32 3, label %15
    i32 4, label %16
    i32 5, label %17
  ]

14:                                               ; preds = %12, %12
  fence syncscope("singlethread") acquire
  br label %18

15:                                               ; preds = %12
  fence syncscope("singlethread") release
  br label %18

16:                                               ; preds = %12
  fence syncscope("singlethread") acq_rel
  br label %18

17:                                               ; preds = %12
  fence syncscope("singlethread") seq_cst
  br label %18

18:                                               ; preds = %17, %16, %15, %14, %12
  %19 = call { i32, i32 } asm sideeffect "rdtscp\0A\09lfence", "={ax},={dx},~{rcx},~{dirflag},~{fpsr},~{flags}"() #3, !srcloc !19
  %20 = extractvalue { i32, i32 } %19, 0
  %21 = extractvalue { i32, i32 } %19, 1
  store i32 %20, ptr %5, align 4
  store i32 %21, ptr %6, align 4
  %22 = load i32, ptr %6, align 4
  %23 = zext i32 %22 to i64
  %24 = shl i64 %23, 32
  %25 = load i32, ptr %5, align 4
  %26 = zext i32 %25 to i64
  %27 = add i64 %24, %26
  %28 = getelementptr inbounds nuw %"struct.pxrInternal_v0_24__pxrReserved__::ArchIntervalTimer", ptr %7, i32 0, i32 2
  %29 = load i32, ptr %28, align 4
  %30 = zext i32 %29 to i64
  %31 = shl i64 %30, 32
  %32 = getelementptr inbounds nuw %"struct.pxrInternal_v0_24__pxrReserved__::ArchIntervalTimer", ptr %7, i32 0, i32 1
  %33 = load i32, ptr %32, align 4
  %34 = zext i32 %33 to i64
  %35 = add i64 %31, %34
  %36 = sub i64 %27, %35
  store i64 %36, ptr %3, align 8
  br label %37

37:                                               ; preds = %18, %11
  %38 = load i64, ptr %3, align 8
  ret i64 %38
}

; Function Attrs: mustprogress nounwind uwtable
define internal void @"_ZZN32pxrInternal_v0_24__pxrReserved__14TraceCollector21_MeasureScopeOverheadEvENK3$_0clEv"(ptr noundef nonnull align 8 dereferenceable(8) %0) #5 align 2 {
  %2 = alloca ptr, align 8
  %3 = alloca %"class.pxrInternal_v0_24__pxrReserved__::TraceScopeAuto", align 8
  store ptr %0, ptr %2, align 8
  %4 = load ptr, ptr %2, align 8
  call void @_ZN32pxrInternal_v0_24__pxrReserved__14TraceScopeAutoC2ERKNS_18TraceStaticKeyDataE(ptr noundef nonnull align 8 dereferenceable(20) %3, ptr noundef nonnull align 8 dereferenceable(24) @"_ZZZN32pxrInternal_v0_24__pxrReserved__14TraceCollector21_MeasureScopeOverheadEvENK3$_0clEvE16TraceKeyData_227") #3
  %5 = getelementptr inbounds nuw %class.anon, ptr %4, i32 0, i32 0
  %6 = load ptr, ptr %5, align 8
  %7 = load i64, ptr %6, align 8
  %8 = add i64 %7, 1
  store i64 %8, ptr %6, align 8
  call void @_ZN32pxrInternal_v0_24__pxrReserved__14TraceScopeAutoD2Ev(ptr noundef nonnull align 8 dereferenceable(20) %3) #3
  ret void
}

; Function Attrs: mustprogress uwtable
define linkonce_odr void @_ZN32pxrInternal_v0_24__pxrReserved__17ArchIntervalTimerC2Eb(ptr noundef nonnull align 4 dereferenceable(12) %0, i1 noundef zeroext %1) unnamed_addr #4 comdat align 2 {
  %3 = alloca ptr, align 8
  %4 = alloca i8, align 1
  store ptr %0, ptr %3, align 8
  %5 = zext i1 %1 to i8
  store i8 %5, ptr %4, align 1
  %6 = load ptr, ptr %3, align 8
  %7 = getelementptr inbounds nuw %"struct.pxrInternal_v0_24__pxrReserved__::ArchIntervalTimer", ptr %6, i32 0, i32 0
  %8 = load i8, ptr %4, align 1
  %9 = trunc i8 %8 to i1
  %10 = zext i1 %9 to i8
  store i8 %10, ptr %7, align 4
  %11 = getelementptr inbounds nuw %"struct.pxrInternal_v0_24__pxrReserved__::ArchIntervalTimer", ptr %6, i32 0, i32 1
  store i32 0, ptr %11, align 4
  %12 = getelementptr inbounds nuw %"struct.pxrInternal_v0_24__pxrReserved__::ArchIntervalTimer", ptr %6, i32 0, i32 2
  store i32 0, ptr %12, align 4
  %13 = getelementptr inbounds nuw %"struct.pxrInternal_v0_24__pxrReserved__::ArchIntervalTimer", ptr %6, i32 0, i32 0
  %14 = load i8, ptr %13, align 4
  %15 = trunc i8 %14 to i1
  br i1 %15, label %16, label %17

16:                                               ; preds = %2
  call void @_ZN32pxrInternal_v0_24__pxrReserved__17ArchIntervalTimer5StartEv(ptr noundef nonnull align 4 dereferenceable(12) %6)
  br label %17

17:                                               ; preds = %16, %2
  ret void
}

; Function Attrs: mustprogress uwtable
define internal noundef i64 @"_ZZN32pxrInternal_v0_24__pxrReserved__24ArchMeasureExecutionTimeIZNS_14TraceCollector21_MeasureScopeOverheadEvE3$_0EEmRKT_mPbENKUliE_clEi"(ptr noundef nonnull align 8 dereferenceable(8) %0, i32 noundef %1) #4 align 2 {
  %3 = alloca i32, align 4
  %4 = alloca i32, align 4
  %5 = alloca ptr, align 8
  %6 = alloca i32, align 4
  %7 = alloca %"struct.pxrInternal_v0_24__pxrReserved__::ArchIntervalTimer", align 4
  %8 = alloca i32, align 4
  store ptr %0, ptr %5, align 8
  store i32 %1, ptr %6, align 4
  %9 = load ptr, ptr %5, align 8
  call void @_ZN32pxrInternal_v0_24__pxrReserved__17ArchIntervalTimerC2Eb(ptr noundef nonnull align 4 dereferenceable(12) %7, i1 noundef zeroext true)
  %10 = load i32, ptr %6, align 4
  store i32 %10, ptr %8, align 4
  br label %11

11:                                               ; preds = %29, %2
  %12 = load i32, ptr %8, align 4
  %13 = add nsw i32 %12, -1
  store i32 %13, ptr %8, align 4
  %14 = icmp ne i32 %12, 0
  br i1 %14, label %15, label %30

15:                                               ; preds = %11
  store i32 5, ptr %3, align 4
  %16 = load i32, ptr %3, align 4
  switch i32 %16, label %21 [
    i32 1, label %17
    i32 2, label %17
    i32 3, label %18
    i32 4, label %19
    i32 5, label %20
  ]

17:                                               ; preds = %15, %15
  fence syncscope("singlethread") acquire
  br label %21

18:                                               ; preds = %15
  fence syncscope("singlethread") release
  br label %21

19:                                               ; preds = %15
  fence syncscope("singlethread") acq_rel
  br label %21

20:                                               ; preds = %15
  fence syncscope("singlethread") seq_cst
  br label %21

21:                                               ; preds = %20, %19, %18, %17, %15
  %22 = getelementptr inbounds nuw %class.anon.78, ptr %9, i32 0, i32 0
  %23 = load ptr, ptr %22, align 8
  call void @"_ZZN32pxrInternal_v0_24__pxrReserved__14TraceCollector21_MeasureScopeOverheadEvENK3$_0clEv"(ptr noundef nonnull align 8 dereferenceable(8) %23)
  store i32 5, ptr %4, align 4
  %24 = load i32, ptr %4, align 4
  switch i32 %24, label %29 [
    i32 1, label %25
    i32 2, label %25
    i32 3, label %26
    i32 4, label %27
    i32 5, label %28
  ]

25:                                               ; preds = %21, %21
  fence syncscope("singlethread") acquire
  br label %29

26:                                               ; preds = %21
  fence syncscope("singlethread") release
  br label %29

27:                                               ; preds = %21
  fence syncscope("singlethread") acq_rel
  br label %29

28:                                               ; preds = %21
  fence syncscope("singlethread") seq_cst
  br label %29

29:                                               ; preds = %28, %27, %26, %25, %21
  br label %11, !llvm.loop !18

30:                                               ; preds = %11
  %31 = call noundef i64 @_ZN32pxrInternal_v0_24__pxrReserved__17ArchIntervalTimer15GetElapsedTicksEv(ptr noundef nonnull align 4 dereferenceable(12) %7)
  ret i64 %31
}

; Function Attrs: mustprogress uwtable
define internal noundef i64 @"_ZZN32pxrInternal_v0_24__pxrReserved__24ArchMeasureExecutionTimeIZNS_14TraceCollector21_MeasureScopeOverheadEvE3$_0EEmRKT_mPbENKUlPKviE_clES8_i"(ptr noundef nonnull align 1 dereferenceable(1) %0, ptr noundef %1, i32 noundef %2) #4 align 2 {
  %4 = alloca ptr, align 8
  %5 = alloca ptr, align 8
  %6 = alloca i32, align 4
  store ptr %0, ptr %4, align 8
  store ptr %1, ptr %5, align 8
  store i32 %2, ptr %6, align 4
  %7 = load ptr, ptr %5, align 8
  %8 = load i32, ptr %6, align 4
  %9 = call noundef i64 @"_ZZN32pxrInternal_v0_24__pxrReserved__24ArchMeasureExecutionTimeIZNS_14TraceCollector21_MeasureScopeOverheadEvE3$_0EEmRKT_mPbENKUliE_clEi"(ptr noundef nonnull align 8 dereferenceable(8) %7, i32 noundef %8)
  ret i64 %9
}

; Function Attrs: mustprogress uwtable
define internal noundef i64 @"_ZZN32pxrInternal_v0_24__pxrReserved__24ArchMeasureExecutionTimeIZNS_14TraceCollector21_MeasureScopeOverheadEvE3$_0EEmRKT_mPbENUlPKviE_8__invokeES8_i"(ptr noundef %0, i32 noundef %1) #4 align 2 {
  %3 = alloca ptr, align 8
  %4 = alloca i32, align 4
  %5 = alloca %class.anon.79, align 1
  store ptr %0, ptr %3, align 8
  store i32 %1, ptr %4, align 4
  %6 = load ptr, ptr %3, align 8
  %7 = load i32, ptr %4, align 4
  %8 = call noundef i64 @"_ZZN32pxrInternal_v0_24__pxrReserved__24ArchMeasureExecutionTimeIZNS_14TraceCollector21_MeasureScopeOverheadEvE3$_0EEmRKT_mPbENKUlPKviE_clES8_i"(ptr noundef nonnull align 1 dereferenceable(1) %5, ptr noundef %6, i32 noundef %7)
  ret i64 %8
}