; Function Attrs: mustprogress uwtable
define internal noundef i64 @"_ZZN32pxrInternal_v0_24__pxrReserved__24ArchMeasureExecutionTimeIZNS_14TraceCollector21_MeasureScopeOverheadEvE3$_0EEmRKT_mPbENUlPKviE_8__invokeES8_i"(ptr nocapture noundef readonly %0, i32 noundef %1) #3 align 2 personality ptr @__gxx_personality_v0 {
  %3 = alloca %"class.pxrInternal_v0_24__pxrReserved__::TraceKey", align 8
  fence syncscope("singlethread") seq_cst
  %4 = tail call { i32, i32 } asm sideeffect "lfence\0A\09rdtsc\0A\09lfence", "={ax},={dx},~{dirflag},~{fpsr},~{flags}"() #19, !srcloc !36
  %.not4.i.i = icmp eq i32 %1, 0
  br i1 %.not4.i.i, label %"_ZZN32pxrInternal_v0_24__pxrReserved__24ArchMeasureExecutionTimeIZNS_14TraceCollector21_MeasureScopeOverheadEvE3$_0EEmRKT_mPbENKUlPKviE_clES8_i.exit", label %.lr.ph.i.i

.lr.ph.i.i:                                       ; preds = %2, %"_ZZN32pxrInternal_v0_24__pxrReserved__14TraceCollector21_MeasureScopeOverheadEvENK3$_0clEv.exit.i.i"
  %.in.i.i = phi i32 [ %5, %"_ZZN32pxrInternal_v0_24__pxrReserved__14TraceCollector21_MeasureScopeOverheadEvENK3$_0clEv.exit.i.i" ], [ %1, %2 ]
  %5 = add nsw i32 %.in.i.i, -1
  fence syncscope("singlethread") seq_cst
  %6 = load ptr, ptr %0, align 8
  %7 = load atomic i32, ptr @_ZN32pxrInternal_v0_24__pxrReserved__14TraceCollector10_isEnabledE acquire, align 4
  %8 = icmp eq i32 %7, 1
  br i1 %8, label %12, label %_ZN32pxrInternal_v0_24__pxrReserved__14TraceScopeAutoC2ERKNS_18TraceStaticKeyDataE.exit.i.i.i

_ZN32pxrInternal_v0_24__pxrReserved__14TraceScopeAutoC2ERKNS_18TraceStaticKeyDataE.exit.i.i.i: ; preds = %.lr.ph.i.i
  %9 = load ptr, ptr %6, align 8
  %10 = load i64, ptr %9, align 8
  %11 = add i64 %10, 1
  store i64 %11, ptr %9, align 8
  call void @llvm.lifetime.start.p0(i64 8, ptr nonnull %3)
  br label %"_ZZN32pxrInternal_v0_24__pxrReserved__14TraceCollector21_MeasureScopeOverheadEvENK3$_0clEv.exit.i.i"

12:                                               ; preds = %.lr.ph.i.i
  fence syncscope("singlethread") seq_cst
  %13 = tail call { i32, i32 } asm sideeffect "lfence\0A\09rdtsc\0A\09lfence", "={ax},={dx},~{dirflag},~{fpsr},~{flags}"() #19, !srcloc !36
  %14 = extractvalue { i32, i32 } %13, 0
  %15 = extractvalue { i32, i32 } %13, 1
  %16 = load ptr, ptr %6, align 8
  %17 = load i64, ptr %16, align 8
  %18 = add i64 %17, 1
  store i64 %18, ptr %16, align 8
  call void @llvm.lifetime.start.p0(i64 8, ptr nonnull %3)
  fence syncscope("singlethread") seq_cst
  %19 = tail call noundef i64 asm sideeffect "rdtscp\0A\09shl $$32, %rdx\0A\09or %rdx, $0\0A\09lfence", "={ax},~{rcx},~{rdx},~{cc},~{dirflag},~{fpsr},~{flags}"() #19, !srcloc !37
  store ptr @"_ZZZN32pxrInternal_v0_24__pxrReserved__14TraceCollector21_MeasureScopeOverheadEvENK3$_0clEvE16TraceKeyData_227", ptr %3, align 8
  %.sroa.8.12.insert.ext.i.i.i = zext i32 %15 to i64
  %.sroa.8.12.insert.shift.i.i.i = shl nuw i64 %.sroa.8.12.insert.ext.i.i.i, 32
  %.sroa.5.12.insert.ext.i.i.i = zext i32 %14 to i64
  %.sroa.5.12.insert.insert.i.i.i = or disjoint i64 %.sroa.8.12.insert.shift.i.i.i, %.sroa.5.12.insert.ext.i.i.i
  call void @_ZN32pxrInternal_v0_24__pxrReserved__14TraceCollector5ScopeERKNS_8TraceKeyEmm(ptr noundef nonnull align 8 dereferenceable(8) %3, i64 noundef %.sroa.5.12.insert.insert.i.i.i, i64 noundef %19) #19
  br label %"_ZZN32pxrInternal_v0_24__pxrReserved__14TraceCollector21_MeasureScopeOverheadEvENK3$_0clEv.exit.i.i"

"_ZZN32pxrInternal_v0_24__pxrReserved__14TraceCollector21_MeasureScopeOverheadEvENK3$_0clEv.exit.i.i": ; preds = %12, %_ZN32pxrInternal_v0_24__pxrReserved__14TraceScopeAutoC2ERKNS_18TraceStaticKeyDataE.exit.i.i.i
  call void @llvm.lifetime.end.p0(i64 8, ptr nonnull %3)
  fence syncscope("singlethread") seq_cst
  %.not.i.i = icmp eq i32 %5, 0
  br i1 %.not.i.i, label %"_ZZN32pxrInternal_v0_24__pxrReserved__24ArchMeasureExecutionTimeIZNS_14TraceCollector21_MeasureScopeOverheadEvE3$_0EEmRKT_mPbENKUlPKviE_clES8_i.exit", label %.lr.ph.i.i, !llvm.loop !38

"_ZZN32pxrInternal_v0_24__pxrReserved__24ArchMeasureExecutionTimeIZNS_14TraceCollector21_MeasureScopeOverheadEvE3$_0EEmRKT_mPbENKUlPKviE_clES8_i.exit": ; preds = %"_ZZN32pxrInternal_v0_24__pxrReserved__14TraceCollector21_MeasureScopeOverheadEvENK3$_0clEv.exit.i.i", %2
  %20 = extractvalue { i32, i32 } %4, 1
  %21 = extractvalue { i32, i32 } %4, 0
  fence syncscope("singlethread") seq_cst
  %22 = tail call { i32, i32 } asm sideeffect "rdtscp\0A\09lfence", "={ax},={dx},~{rcx},~{dirflag},~{fpsr},~{flags}"() #19, !srcloc !39
  %23 = extractvalue { i32, i32 } %22, 0
  %24 = extractvalue { i32, i32 } %22, 1
  %25 = zext i32 %24 to i64
  %26 = shl nuw i64 %25, 32
  %27 = zext i32 %23 to i64
  %.neg.i.i = sub i32 0, %20
  %.neg.z.i.i = zext i32 %.neg.i.i to i64
  %.sroa.6.4.insert.shift.neg5.i.i = shl nuw i64 %.neg.z.i.i, 32
  %.sroa.3.4.insert.ext.i.i = zext i32 %21 to i64
  %.sroa.3.4.insert.insert.neg.i.i = sub i64 %.sroa.6.4.insert.shift.neg5.i.i, %.sroa.3.4.insert.ext.i.i
  %28 = add i64 %.sroa.3.4.insert.insert.neg.i.i, %27
  %29 = add i64 %28, %26
  ret i64 %29
}